target datalayout = "e-m:e-p270:32:32-p271:32:32-p272:64:64-i64:64-i128:128-f80:128-n8:16:32:64-S128"
target triple = "x86_64-pc-linux-gnu"

%struct.expert_field = type { i32, i32 }

@hf_openflow_v6_oxs_class = internal global i32 0, align 4
@hf_openflow_v6_oxs_field = internal global i32 0, align 4
@hf_openflow_v6_oxs_reserved = internal global i32 0, align 4
@hf_openflow_v6_oxs_length = internal global i32 0, align 4
@hf_openflow_v6_oxs_basic_duration_sec = internal global i32 0, align 4
@hf_openflow_v6_oxs_basic_duration_nsec = internal global i32 0, align 4
@hf_openflow_v6_oxs_basic_idle_sec = internal global i32 0, align 4
@hf_openflow_v6_oxs_basic_idle_nsec = internal global i32 0, align 4
@hf_openflow_v6_oxs_basic_flow_count = internal global i32 0, align 4
@hf_openflow_v6_oxs_basic_packet_count = internal global i32 0, align 4
@hf_openflow_v6_oxs_basic_byte_count = internal global i32 0, align 4
@hf_openflow_v6_oxs_experimenter_experimenter = internal global i32 0, align 4
@hf_openflow_v6_oxs_experimenter_value = internal global i32 0, align 4
@hf_openflow_v6_stats_reserved = internal global i32 0, align 4
@hf_openflow_v6_stats_length = internal global i32 0, align 4
@hf_openflow_v6_stats_pad = internal global i32 0, align 4
@ei_openflow_v6_length_too_short = internal global %struct.expert_field zeroinitializer, align 4

; Function Attrs: null_pointer_is_valid sspstrong uwtable
define internal i32 @dissect_openflow_v6_oxs(ptr noundef %0, ptr noundef %1, ptr noundef %2, i32 noundef %3, i16 noundef zeroext %4) #0 {
  %6 = alloca ptr, align 8
  %7 = alloca ptr, align 8
  %8 = alloca ptr, align 8
  %9 = alloca i32, align 4
  %10 = alloca i16, align 2
  %11 = alloca i32, align 4
  %12 = alloca i32, align 4
  %13 = alloca i32, align 4
  store ptr %0, ptr %6, align 8
  store ptr %1, ptr %7, align 8
  store ptr %2, ptr %8, align 8
  store i32 %3, ptr %9, align 4
  store i16 %4, ptr %10, align 2
  call void @llvm.lifetime.start.p0(i64 4, ptr %11) #5
  call void @llvm.lifetime.start.p0(i64 4, ptr %12) #5
  call void @llvm.lifetime.start.p0(i64 4, ptr %13) #5
  %14 = load ptr, ptr %8, align 8
  %15 = load i32, ptr @hf_openflow_v6_oxs_class, align 4
  %16 = load ptr, ptr %6, align 8
  %17 = load i32, ptr %9, align 4
  %18 = call ptr @proto_tree_add_item_ret_uint(ptr noundef %14, i32 noundef %15, ptr noundef %16, i32 noundef %17, i32 noundef 2, i32 noundef 0, ptr noundef %11)
  %19 = load i32, ptr %9, align 4
  %20 = add i32 %19, 2
  store i32 %20, ptr %9, align 4
  %21 = load ptr, ptr %8, align 8
  %22 = load i32, ptr @hf_openflow_v6_oxs_field, align 4
  %23 = load ptr, ptr %6, align 8
  %24 = load i32, ptr %9, align 4
  %25 = call ptr @proto_tree_add_item_ret_uint(ptr noundef %21, i32 noundef %22, ptr noundef %23, i32 noundef %24, i32 noundef 1, i32 noundef 0, ptr noundef %12)
  %26 = load ptr, ptr %8, align 8
  %27 = load i32, ptr @hf_openflow_v6_oxs_reserved, align 4
  %28 = load ptr, ptr %6, align 8
  %29 = load i32, ptr %9, align 4
  %30 = call ptr @proto_tree_add_item(ptr noundef %26, i32 noundef %27, ptr noundef %28, i32 noundef %29, i32 noundef 1, i32 noundef 0)
  %31 = load i32, ptr %9, align 4
  %32 = add i32 %31, 1
  store i32 %32, ptr %9, align 4
  %33 = load ptr, ptr %8, align 8
  %34 = load i32, ptr @hf_openflow_v6_oxs_length, align 4
  %35 = load ptr, ptr %6, align 8
  %36 = load i32, ptr %9, align 4
  %37 = call ptr @proto_tree_add_item_ret_uint(ptr noundef %33, i32 noundef %34, ptr noundef %35, i32 noundef %36, i32 noundef 1, i32 noundef 0, ptr noundef %13)
  %38 = load i32, ptr %9, align 4
  %39 = add i32 %38, 1
  store i32 %39, ptr %9, align 4
  %40 = load i32, ptr %11, align 4
  %41 = icmp eq i32 %40, 32770
  br i1 %41, label %42, label %87

42:                                               ; preds = %5
  %43 = load i32, ptr %12, align 4
  switch i32 %43, label %86 [
    i32 0, label %44
    i32 1, label %56
    i32 3, label %68
    i32 4, label %74
    i32 5, label %80
  ]

44:                                               ; preds = %42
  %45 = load ptr, ptr %8, align 8
  %46 = load i32, ptr @hf_openflow_v6_oxs_basic_duration_sec, align 4
  %47 = load ptr, ptr %6, align 8
  %48 = load i32, ptr %9, align 4
  %49 = call ptr @proto_tree_add_item(ptr noundef %45, i32 noundef %46, ptr noundef %47, i32 noundef %48, i32 noundef 4, i32 noundef 0)
  %50 = load ptr, ptr %8, align 8
  %51 = load i32, ptr @hf_openflow_v6_oxs_basic_duration_nsec, align 4
  %52 = load ptr, ptr %6, align 8
  %53 = load i32, ptr %9, align 4
  %54 = add i32 %53, 4
  %55 = call ptr @proto_tree_add_item(ptr noundef %50, i32 noundef %51, ptr noundef %52, i32 noundef %54, i32 noundef 4, i32 noundef 0)
  br label %86

56:                                               ; preds = %42
  %57 = load ptr, ptr %8, align 8
  %58 = load i32, ptr @hf_openflow_v6_oxs_basic_idle_sec, align 4
  %59 = load ptr, ptr %6, align 8
  %60 = load i32, ptr %9, align 4
  %61 = call ptr @proto_tree_add_item(ptr noundef %57, i32 noundef %58, ptr noundef %59, i32 noundef %60, i32 noundef 4, i32 noundef 0)
  %62 = load ptr, ptr %8, align 8
  %63 = load i32, ptr @hf_openflow_v6_oxs_basic_idle_nsec, align 4
  %64 = load ptr, ptr %6, align 8
  %65 = load i32, ptr %9, align 4
  %66 = add i32 %65, 4
  %67 = call ptr @proto_tree_add_item(ptr noundef %62, i32 noundef %63, ptr noundef %64, i32 noundef %66, i32 noundef 4, i32 noundef 0)
  br label %86

68:                                               ; preds = %42
  %69 = load ptr, ptr %8, align 8
  %70 = load i32, ptr @hf_openflow_v6_oxs_basic_flow_count, align 4
  %71 = load ptr, ptr %6, align 8
  %72 = load i32, ptr %9, align 4
  %73 = call ptr @proto_tree_add_item(ptr noundef %69, i32 noundef %70, ptr noundef %71, i32 noundef %72, i32 noundef 4, i32 noundef 0)
  br label %86

74:                                               ; preds = %42
  %75 = load ptr, ptr %8, align 8
  %76 = load i32, ptr @hf_openflow_v6_oxs_basic_packet_count, align 4
  %77 = load ptr, ptr %6, align 8
  %78 = load i32, ptr %9, align 4
  %79 = call ptr @proto_tree_add_item(ptr noundef %75, i32 noundef %76, ptr noundef %77, i32 noundef %78, i32 noundef 8, i32 noundef 0)
  br label %86

80:                                               ; preds = %42
  %81 = load ptr, ptr %8, align 8
  %82 = load i32, ptr @hf_openflow_v6_oxs_basic_byte_count, align 4
  %83 = load ptr, ptr %6, align 8
  %84 = load i32, ptr %9, align 4
  %85 = call ptr @proto_tree_add_item(ptr noundef %81, i32 noundef %82, ptr noundef %83, i32 noundef %84, i32 noundef 8, i32 noundef 0)
  br label %86

86:                                               ; preds = %42, %80, %74, %68, %56, %44
  br label %105

87:                                               ; preds = %5
  %88 = load i32, ptr %11, align 4
  %89 = icmp eq i32 %88, 65535
  br i1 %89, label %90, label %104

90:                                               ; preds = %87
  %91 = load ptr, ptr %8, align 8
  %92 = load i32, ptr @hf_openflow_v6_oxs_experimenter_experimenter, align 4
  %93 = load ptr, ptr %6, align 8
  %94 = load i32, ptr %9, align 4
  %95 = call ptr @proto_tree_add_item(ptr noundef %91, i32 noundef %92, ptr noundef %93, i32 noundef %94, i32 noundef 4, i32 noundef 0)
  %96 = load ptr, ptr %8, align 8
  %97 = load i32, ptr @hf_openflow_v6_oxs_experimenter_value, align 4
  %98 = load ptr, ptr %6, align 8
  %99 = load i32, ptr %9, align 4
  %100 = add i32 %99, 4
  %101 = load i32, ptr %13, align 4
  %102 = sub i32 %101, 4
  %103 = call ptr @proto_tree_add_item(ptr noundef %96, i32 noundef %97, ptr noundef %98, i32 noundef %100, i32 noundef %102, i32 noundef 0)
  br label %104

104:                                              ; preds = %90, %87
  br label %105

105:                                              ; preds = %104, %86
  %106 = load i32, ptr %13, align 4
  %107 = load i32, ptr %9, align 4
  %108 = add i32 %107, %106
  store i32 %108, ptr %9, align 4
  %109 = load i32, ptr %9, align 4
  call void @llvm.lifetime.end.p0(i64 4, ptr %13) #5
  call void @llvm.lifetime.end.p0(i64 4, ptr %12) #5
  call void @llvm.lifetime.end.p0(i64 4, ptr %11) #5
  ret i32 %109
}

; Function Attrs: null_pointer_is_valid sspstrong uwtable
define internal i32 @dissect_openflow_stats_v6(ptr noundef %0, ptr noundef %1, ptr noundef %2, i32 noundef %3, i16 noundef zeroext %4) #0 {
  %6 = alloca i32, align 4
  %7 = alloca ptr, align 8
  %8 = alloca ptr, align 8
  %9 = alloca ptr, align 8
  %10 = alloca i32, align 4
  %11 = alloca i16, align 2
  %12 = alloca ptr, align 8
  %13 = alloca i32, align 4
  %14 = alloca i32, align 4
  %15 = alloca i32, align 4
  %16 = alloca i32, align 4
  store ptr %0, ptr %7, align 8
  store ptr %1, ptr %8, align 8
  store ptr %2, ptr %9, align 8
  store i32 %3, ptr %10, align 4
  store i16 %4, ptr %11, align 2
  call void @llvm.lifetime.start.p0(i64 8, ptr %12) #5
  call void @llvm.lifetime.start.p0(i64 4, ptr %13) #5
  call void @llvm.lifetime.start.p0(i64 4, ptr %14) #5
  call void @llvm.lifetime.start.p0(i64 4, ptr %15) #5
  %17 = load ptr, ptr %9, align 8
  %18 = load i32, ptr @hf_openflow_v6_stats_reserved, align 4
  %19 = load ptr, ptr %7, align 8
  %20 = load i32, ptr %10, align 4
  %21 = call ptr @proto_tree_add_item(ptr noundef %17, i32 noundef %18, ptr noundef %19, i32 noundef %20, i32 noundef 2, i32 noundef 0)
  %22 = load ptr, ptr %9, align 8
  %23 = load i32, ptr @hf_openflow_v6_stats_length, align 4
  %24 = load ptr, ptr %7, align 8
  %25 = load i32, ptr %10, align 4
  %26 = add i32 %25, 2
  %27 = call ptr @proto_tree_add_item_ret_uint(ptr noundef %22, i32 noundef %23, ptr noundef %24, i32 noundef %26, i32 noundef 2, i32 noundef 0, ptr noundef %13)
  store ptr %27, ptr %12, align 8
  %28 = load i32, ptr %10, align 4
  %29 = load i32, ptr %13, align 4
  %30 = add i32 %28, %29
  store i32 %30, ptr %14, align 4
  %31 = load i32, ptr %10, align 4
  %32 = add i32 %31, 4
  store i32 %32, ptr %10, align 4
  %33 = load i32, ptr %13, align 4
  %34 = icmp ult i32 %33, 4
  br i1 %34, label %35, label %40

35:                                               ; preds = %5
  %36 = load ptr, ptr %8, align 8
  %37 = load ptr, ptr %12, align 8
  %38 = call ptr @expert_add_info(ptr noundef %36, ptr noundef %37, ptr noundef @ei_openflow_v6_length_too_short)
  %39 = load i32, ptr %10, align 4
  store i32 %39, ptr %6, align 4
  store i32 1, ptr %16, align 4
  br label %81

40:                                               ; preds = %5
  br label %41

41:                                               ; preds = %45, %40
  %42 = load i32, ptr %10, align 4
  %43 = load i32, ptr %14, align 4
  %44 = icmp slt i32 %42, %43
  br i1 %44, label %45, label %55

45:                                               ; preds = %41
  %46 = load ptr, ptr %7, align 8
  %47 = load ptr, ptr %8, align 8
  %48 = load ptr, ptr %9, align 8
  %49 = load i32, ptr %10, align 4
  %50 = load i32, ptr %14, align 4
  %51 = load i32, ptr %10, align 4
  %52 = sub i32 %50, %51
  %53 = trunc i32 %52 to i16
  %54 = call i32 @dissect_openflow_v6_oxs(ptr noundef %46, ptr noundef %47, ptr noundef %48, i32 noundef %49, i16 noundef zeroext %53)
  store i32 %54, ptr %10, align 4
  br label %41, !llvm.loop !34

55:                                               ; preds = %41
  %56 = load i32, ptr %10, align 4
  %57 = load i32, ptr %14, align 4
  %58 = icmp sgt i32 %56, %57
  br i1 %58, label %59, label %61

59:                                               ; preds = %55
  %60 = load i32, ptr %14, align 4
  store i32 %60, ptr %10, align 4
  br label %61

61:                                               ; preds = %59, %55
  %62 = load i32, ptr %13, align 4
  %63 = add i32 %62, 7
  %64 = and i32 %63, -8
  %65 = load i32, ptr %13, align 4
  %66 = sub i32 %64, %65
  store i32 %66, ptr %15, align 4
  %67 = load i32, ptr %15, align 4
  %68 = icmp ne i32 %67, 0
  br i1 %68, label %69, label %79

69:                                               ; preds = %61
  %70 = load ptr, ptr %9, align 8
  %71 = load i32, ptr @hf_openflow_v6_stats_pad, align 4
  %72 = load ptr, ptr %7, align 8
  %73 = load i32, ptr %14, align 4
  %74 = load i32, ptr %15, align 4
  %75 = call ptr @proto_tree_add_item(ptr noundef %70, i32 noundef %71, ptr noundef %72, i32 noundef %73, i32 noundef %74, i32 noundef 0)
  %76 = load i32, ptr %15, align 4
  %77 = load i32, ptr %10, align 4
  %78 = add i32 %77, %76
  store i32 %78, ptr %10, align 4
  br label %79

79:                                               ; preds = %69, %61
  %80 = load i32, ptr %10, align 4
  store i32 %80, ptr %6, align 4
  store i32 1, ptr %16, align 4
  br label %81

81:                                               ; preds = %79, %35
  call void @llvm.lifetime.end.p0(i64 4, ptr %15) #5
  call void @llvm.lifetime.end.p0(i64 4, ptr %14) #5
  call void @llvm.lifetime.end.p0(i64 4, ptr %13) #5
  call void @llvm.lifetime.end.p0(i64 8, ptr %12) #5
  %82 = load i32, ptr %6, align 4
  ret i32 %82
}