; Function Attrs: null_pointer_is_valid sspstrong uwtable
define internal fastcc i32 @dissect_openflow_stats_v6(ptr noundef %0, ptr noundef %1, ptr noundef %2, i32 noundef %3) unnamed_addr #0 {
  %5 = alloca i32, align 4
  %6 = alloca i32, align 4
  %7 = alloca i32, align 4
  %8 = alloca i32, align 4
  call void @llvm.lifetime.start.p0(i64 4, ptr nonnull %8) #4
  %9 = load i32, ptr @hf_openflow_v6_stats_reserved, align 4
  %10 = tail call ptr @proto_tree_add_item(ptr noundef %2, i32 noundef %9, ptr noundef %0, i32 noundef %3, i32 noundef 2, i32 noundef 0)
  %11 = load i32, ptr @hf_openflow_v6_stats_length, align 4
  %12 = add i32 %3, 2
  %13 = call ptr @proto_tree_add_item_ret_uint(ptr noundef %2, i32 noundef %11, ptr noundef %0, i32 noundef %12, i32 noundef 2, i32 noundef 0, ptr noundef nonnull %8)
  %14 = load i32, ptr %8, align 4
  %15 = add i32 %14, %3
  %16 = add i32 %3, 4
  %17 = icmp ult i32 %14, 4
  br i1 %17, label %19, label %.preheader

.preheader:                                       ; preds = %4
  %18 = icmp slt i32 %16, %15
  br i1 %18, label %.lr.ph, label %._crit_edge

19:                                               ; preds = %4
  %20 = call ptr @expert_add_info(ptr noundef %1, ptr noundef %13, ptr noundef nonnull @ei_openflow_v6_length_too_short)
  br label %75

.lr.ph:                                           ; preds = %.preheader, %dissect_openflow_v6_oxs.exit
  %.03034 = phi i32 [ %65, %dissect_openflow_v6_oxs.exit ], [ %16, %.preheader ]
  call void @llvm.lifetime.start.p0(i64 4, ptr nonnull %5) #4
  call void @llvm.lifetime.start.p0(i64 4, ptr nonnull %6) #4
  call void @llvm.lifetime.start.p0(i64 4, ptr nonnull %7) #4
  %21 = load i32, ptr @hf_openflow_v6_oxs_class, align 4
  %22 = call ptr @proto_tree_add_item_ret_uint(ptr noundef %2, i32 noundef %21, ptr noundef %0, i32 noundef %.03034, i32 noundef 2, i32 noundef 0, ptr noundef nonnull %5)
  %23 = add i32 %.03034, 2
  %24 = load i32, ptr @hf_openflow_v6_oxs_field, align 4
  %25 = call ptr @proto_tree_add_item_ret_uint(ptr noundef %2, i32 noundef %24, ptr noundef %0, i32 noundef %23, i32 noundef 1, i32 noundef 0, ptr noundef nonnull %6)
  %26 = load i32, ptr @hf_openflow_v6_oxs_reserved, align 4
  %27 = call ptr @proto_tree_add_item(ptr noundef %2, i32 noundef %26, ptr noundef %0, i32 noundef %23, i32 noundef 1, i32 noundef 0)
  %28 = add i32 %.03034, 3
  %29 = load i32, ptr @hf_openflow_v6_oxs_length, align 4
  %30 = call ptr @proto_tree_add_item_ret_uint(ptr noundef %2, i32 noundef %29, ptr noundef %0, i32 noundef %28, i32 noundef 1, i32 noundef 0, ptr noundef nonnull %7)
  %31 = add i32 %.03034, 4
  %32 = load i32, ptr %5, align 4
  switch i32 %32, label %dissect_openflow_v6_oxs.exit [
    i32 32770, label %33
    i32 65535, label %56
  ]

33:                                               ; preds = %.lr.ph
  %34 = load i32, ptr %6, align 4
  switch i32 %34, label %dissect_openflow_v6_oxs.exit [
    i32 0, label %35
    i32 1, label %41
    i32 3, label %47
    i32 4, label %50
    i32 5, label %53
  ]

35:                                               ; preds = %33
  %36 = load i32, ptr @hf_openflow_v6_oxs_basic_duration_sec, align 4
  %37 = call ptr @proto_tree_add_item(ptr noundef %2, i32 noundef %36, ptr noundef %0, i32 noundef %31, i32 noundef 4, i32 noundef 0)
  %38 = load i32, ptr @hf_openflow_v6_oxs_basic_duration_nsec, align 4
  %39 = add i32 %.03034, 8
  %40 = call ptr @proto_tree_add_item(ptr noundef %2, i32 noundef %38, ptr noundef %0, i32 noundef %39, i32 noundef 4, i32 noundef 0)
  br label %dissect_openflow_v6_oxs.exit

41:                                               ; preds = %33
  %42 = load i32, ptr @hf_openflow_v6_oxs_basic_idle_sec, align 4
  %43 = call ptr @proto_tree_add_item(ptr noundef %2, i32 noundef %42, ptr noundef %0, i32 noundef %31, i32 noundef 4, i32 noundef 0)
  %44 = load i32, ptr @hf_openflow_v6_oxs_basic_idle_nsec, align 4
  %45 = add i32 %.03034, 8
  %46 = call ptr @proto_tree_add_item(ptr noundef %2, i32 noundef %44, ptr noundef %0, i32 noundef %45, i32 noundef 4, i32 noundef 0)
  br label %dissect_openflow_v6_oxs.exit

47:                                               ; preds = %33
  %48 = load i32, ptr @hf_openflow_v6_oxs_basic_flow_count, align 4
  %49 = call ptr @proto_tree_add_item(ptr noundef %2, i32 noundef %48, ptr noundef %0, i32 noundef %31, i32 noundef 4, i32 noundef 0)
  br label %dissect_openflow_v6_oxs.exit

50:                                               ; preds = %33
  %51 = load i32, ptr @hf_openflow_v6_oxs_basic_packet_count, align 4
  %52 = call ptr @proto_tree_add_item(ptr noundef %2, i32 noundef %51, ptr noundef %0, i32 noundef %31, i32 noundef 8, i32 noundef 0)
  br label %dissect_openflow_v6_oxs.exit

53:                                               ; preds = %33
  %54 = load i32, ptr @hf_openflow_v6_oxs_basic_byte_count, align 4
  %55 = call ptr @proto_tree_add_item(ptr noundef %2, i32 noundef %54, ptr noundef %0, i32 noundef %31, i32 noundef 8, i32 noundef 0)
  br label %dissect_openflow_v6_oxs.exit

56:                                               ; preds = %.lr.ph
  %57 = load i32, ptr @hf_openflow_v6_oxs_experimenter_experimenter, align 4
  %58 = call ptr @proto_tree_add_item(ptr noundef %2, i32 noundef %57, ptr noundef %0, i32 noundef %31, i32 noundef 4, i32 noundef 0)
  %59 = load i32, ptr @hf_openflow_v6_oxs_experimenter_value, align 4
  %60 = add i32 %.03034, 8
  %61 = load i32, ptr %7, align 4
  %62 = add i32 %61, -4
  %63 = call ptr @proto_tree_add_item(ptr noundef %2, i32 noundef %59, ptr noundef %0, i32 noundef %60, i32 noundef %62, i32 noundef 0)
  br label %dissect_openflow_v6_oxs.exit

dissect_openflow_v6_oxs.exit:                     ; preds = %.lr.ph, %33, %35, %41, %47, %50, %53, %56
  %64 = load i32, ptr %7, align 4
  %65 = add i32 %64, %31
  call void @llvm.lifetime.end.p0(i64 4, ptr nonnull %7) #4
  call void @llvm.lifetime.end.p0(i64 4, ptr nonnull %6) #4
  call void @llvm.lifetime.end.p0(i64 4, ptr nonnull %5) #4
  %66 = icmp slt i32 %65, %15
  br i1 %66, label %.lr.ph, label %._crit_edge.loopexit, !llvm.loop !43

._crit_edge.loopexit:                             ; preds = %dissect_openflow_v6_oxs.exit
  %.pre = load i32, ptr %8, align 4
  br label %._crit_edge

._crit_edge:                                      ; preds = %._crit_edge.loopexit, %.preheader
  %67 = phi i32 [ %.pre, %._crit_edge.loopexit ], [ %14, %.preheader ]
  %68 = add i32 %67, 7
  %69 = and i32 %68, -8
  %.not = icmp eq i32 %69, %67
  br i1 %.not, label %75, label %70

70:                                               ; preds = %._crit_edge
  %71 = sub i32 %69, %67
  %72 = load i32, ptr @hf_openflow_v6_stats_pad, align 4
  %73 = call ptr @proto_tree_add_item(ptr noundef %2, i32 noundef %72, ptr noundef %0, i32 noundef %15, i32 noundef %71, i32 noundef 0)
  %74 = add i32 %71, %15
  br label %75

75:                                               ; preds = %._crit_edge, %70, %19
  %.0 = phi i32 [ %16, %19 ], [ %74, %70 ], [ %15, %._crit_edge ]
  call void @llvm.lifetime.end.p0(i64 4, ptr nonnull %8) #4
  ret i32 %.0
}